; Function Attrs: nounwind uwtable
define dso_local range(i32 0, 2) i32 @tls13_derive_key(ptr noundef %0, ptr noundef %1, ptr noundef %2, ptr noundef %3, i64 noundef %4) local_unnamed_addr #0 {
  %6 = getelementptr inbounds nuw i8, ptr %0, i64 8
  %7 = load ptr, ptr %6, align 8, !tbaa !15
  %8 = load ptr, ptr %7, align 8, !tbaa !75
  %9 = getelementptr inbounds nuw i8, ptr %7, i64 1152
  %10 = load ptr, ptr %9, align 8, !tbaa !90
  %11 = tail call i32 @tls13_hkdf_expand_ex(ptr noundef %8, ptr noundef %10, ptr noundef %1, ptr noundef %2, ptr noundef nonnull @.str.4, i64 noundef 3, ptr noundef null, i64 noundef 0, ptr noundef %3, i64 noundef %4, i32 noundef 0)
  %12 = icmp eq i32 %11, 0
  br i1 %12, label %13, label %tls13_hkdf_expand.exit

13:                                               ; preds = %5
  tail call void @ERR_new() #4
  tail call void @ERR_set_debug(ptr noundef nonnull @.str.1, i32 noundef 113, ptr noundef nonnull @__func__.tls13_hkdf_expand) #4
  tail call void (ptr, i32, i32, ptr, ...) @ossl_statem_fatal(ptr noundef nonnull %0, i32 noundef 80, i32 noundef 786691, ptr noundef null) #4
  br label %tls13_hkdf_expand.exit

tls13_hkdf_expand.exit:                           ; preds = %5, %13
  ret i32 %11
}